target datalayout = "e-m:e-p270:32:32-p271:32:32-p272:64:64-i64:64-i128:128-f80:128-n8:16:32:64-S128"
target triple = "x86_64-pc-linux-gnu"

; Function Attrs: mustprogress nounwind uwtable
define internal noundef nonnull align 1 dereferenceable(1) ptr @"_ZNSt9_Any_data9_M_accessIZN4LIEF5MachO8DyldInfo19update_binding_infoERNS1_15vector_iostreamERNS2_7details17dyld_info_commandEE3$_0EERT_v"(ptr noundef nonnull align 8 dereferenceable(16) %0) #0 align 2 {
  %2 = alloca ptr, align 8
  store ptr %0, ptr %2, align 8, !tbaa !1777
  %3 = load ptr, ptr %2, align 8
  %4 = call noundef ptr @_ZNSt9_Any_data9_M_accessEv(ptr noundef nonnull align 8 dereferenceable(16) %3) #21
  ret ptr %4
}

; Function Attrs: mustprogress nounwind uwtable
define internal void @"_ZNSt14_Function_base13_Base_managerIZN4LIEF5MachO8DyldInfo19update_binding_infoERNS1_15vector_iostreamERNS2_7details17dyld_info_commandEE3$_0E9_M_createIRKS9_EEvRSt9_Any_dataOT_St17integral_constantIbLb1EE"(ptr noundef nonnull align 8 dereferenceable(16) %0, ptr noundef nonnull align 1 dereferenceable(1) %1) #0 align 2 {
  %3 = alloca ptr, align 8
  %4 = alloca ptr, align 8
  store ptr %0, ptr %3, align 8, !tbaa !1777
  store ptr %1, ptr %4, align 8, !tbaa !139
  %5 = load ptr, ptr %3, align 8, !tbaa !1777
  %6 = call noundef ptr @_ZNSt9_Any_data9_M_accessEv(ptr noundef nonnull align 8 dereferenceable(16) %5) #21
  ret void
}

; Function Attrs: mustprogress nounwind uwtable
define linkonce_odr hidden noundef ptr @_ZNKSt9_Any_data9_M_accessEv(ptr noundef nonnull align 8 dereferenceable(16) %0) #0 comdat align 2 {
  %2 = alloca ptr, align 8
  store ptr %0, ptr %2, align 8, !tbaa !1777
  %3 = load ptr, ptr %2, align 8
  %4 = getelementptr inbounds [16 x i8], ptr %3, i64 0, i64 0
  ret ptr %4
}

; Function Attrs: mustprogress nounwind uwtable
define internal void @"_ZNSt14_Function_base13_Base_managerIZN4LIEF5MachO8DyldInfo19update_binding_infoERNS1_15vector_iostreamERNS2_7details17dyld_info_commandEE3$_0E10_M_destroyERSt9_Any_dataSt17integral_constantIbLb1EE"(ptr noundef nonnull align 8 dereferenceable(16) %0) #0 align 2 {
  %2 = alloca ptr, align 8
  store ptr %0, ptr %2, align 8, !tbaa !1777
  %3 = load ptr, ptr %2, align 8, !tbaa !1777
  %4 = call noundef nonnull align 1 dereferenceable(1) ptr @"_ZNSt9_Any_data9_M_accessIZN4LIEF5MachO8DyldInfo19update_binding_infoERNS1_15vector_iostreamERNS2_7details17dyld_info_commandEE3$_0EERT_v"(ptr noundef nonnull align 8 dereferenceable(16) %3) #21
  ret void
}

; Function Attrs: mustprogress nounwind uwtable
define internal void @"_ZNSt14_Function_base13_Base_managerIZN4LIEF5MachO8DyldInfo19update_binding_infoERNS1_15vector_iostreamERNS2_7details17dyld_info_commandEE3$_0E15_M_init_functorIRKS9_EEvRSt9_Any_dataOT_"(ptr noundef nonnull align 8 dereferenceable(16) %0, ptr noundef nonnull align 1 dereferenceable(1) %1) #0 align 2 {
  %3 = alloca ptr, align 8
  %4 = alloca ptr, align 8
  store ptr %0, ptr %3, align 8, !tbaa !1777
  store ptr %1, ptr %4, align 8, !tbaa !139
  %5 = load ptr, ptr %3, align 8, !tbaa !1777
  %6 = load ptr, ptr %4, align 8, !tbaa !139
  call void @"_ZNSt14_Function_base13_Base_managerIZN4LIEF5MachO8DyldInfo19update_binding_infoERNS1_15vector_iostreamERNS2_7details17dyld_info_commandEE3$_0E9_M_createIRKS9_EEvRSt9_Any_dataOT_St17integral_constantIbLb1EE"(ptr noundef nonnull align 8 dereferenceable(16) %5, ptr noundef nonnull align 1 dereferenceable(1) %6)
  ret void
}

; Function Attrs: mustprogress nounwind uwtable
define internal noundef nonnull align 1 dereferenceable(1) ptr @"_ZNKSt9_Any_data9_M_accessIZN4LIEF5MachO8DyldInfo19update_binding_infoERNS1_15vector_iostreamERNS2_7details17dyld_info_commandEE3$_0EERKT_v"(ptr noundef nonnull align 8 dereferenceable(16) %0) #0 align 2 {
  %2 = alloca ptr, align 8
  store ptr %0, ptr %2, align 8, !tbaa !1777
  %3 = load ptr, ptr %2, align 8
  %4 = call noundef ptr @_ZNKSt9_Any_data9_M_accessEv(ptr noundef nonnull align 8 dereferenceable(16) %3) #21
  ret ptr %4
}

; Function Attrs: mustprogress nounwind uwtable
define linkonce_odr hidden noundef ptr @_ZNSt9_Any_data9_M_accessEv(ptr noundef nonnull align 8 dereferenceable(16) %0) #0 comdat align 2 {
  %2 = alloca ptr, align 8
  store ptr %0, ptr %2, align 8, !tbaa !1777
  %3 = load ptr, ptr %2, align 8
  %4 = getelementptr inbounds [16 x i8], ptr %3, i64 0, i64 0
  ret ptr %4
}

; Function Attrs: mustprogress nounwind uwtable
define internal noundef zeroext i1 @"_ZNSt14_Function_base13_Base_managerIZN4LIEF5MachO8DyldInfo19update_binding_infoERNS1_15vector_iostreamERNS2_7details17dyld_info_commandEE3$_0E10_M_managerERSt9_Any_dataRKSB_St18_Manager_operation"(ptr noundef nonnull align 8 dereferenceable(16) %0, ptr noundef nonnull align 8 dereferenceable(16) %1, i32 noundef %2) #0 align 2 {
  %4 = alloca ptr, align 8
  %5 = alloca ptr, align 8
  %6 = alloca i32, align 4
  store ptr %0, ptr %4, align 8, !tbaa !1777
  store ptr %1, ptr %5, align 8, !tbaa !1777
  store i32 %2, ptr %6, align 4, !tbaa !1779
  %7 = load i32, ptr %6, align 4, !tbaa !1779
  switch i32 %7, label %22 [
    i32 0, label %8
    i32 1, label %11
    i32 2, label %16
    i32 3, label %20
  ]

8:                                                ; preds = %3
  %9 = load ptr, ptr %4, align 8, !tbaa !1777
  %10 = call noundef nonnull align 8 dereferenceable(8) ptr @_ZNSt9_Any_data9_M_accessIPKSt9type_infoEERT_v(ptr noundef nonnull align 8 dereferenceable(16) %9) #21
  store ptr @"_ZTIZN4LIEF5MachO8DyldInfo19update_binding_infoERNS_15vector_iostreamERNS0_7details17dyld_info_commandEE3$_0", ptr %10, align 8, !tbaa !1781
  br label %22

11:                                               ; preds = %3
  %12 = load ptr, ptr %5, align 8, !tbaa !1777
  %13 = call noundef ptr @"_ZNSt14_Function_base13_Base_managerIZN4LIEF5MachO8DyldInfo19update_binding_infoERNS1_15vector_iostreamERNS2_7details17dyld_info_commandEE3$_0E14_M_get_pointerERKSt9_Any_data"(ptr noundef nonnull align 8 dereferenceable(16) %12) #21
  %14 = load ptr, ptr %4, align 8, !tbaa !1777
  %15 = call noundef nonnull align 8 dereferenceable(8) ptr @"_ZNSt9_Any_data9_M_accessIPZN4LIEF5MachO8DyldInfo19update_binding_infoERNS1_15vector_iostreamERNS2_7details17dyld_info_commandEE3$_0EERT_v"(ptr noundef nonnull align 8 dereferenceable(16) %14) #21
  store ptr %13, ptr %15, align 8, !tbaa !139
  br label %22

16:                                               ; preds = %3
  %17 = load ptr, ptr %4, align 8, !tbaa !1777
  %18 = load ptr, ptr %5, align 8, !tbaa !1777
  %19 = call noundef ptr @"_ZNSt14_Function_base13_Base_managerIZN4LIEF5MachO8DyldInfo19update_binding_infoERNS1_15vector_iostreamERNS2_7details17dyld_info_commandEE3$_0E14_M_get_pointerERKSt9_Any_data"(ptr noundef nonnull align 8 dereferenceable(16) %18) #21
  call void @"_ZNSt14_Function_base13_Base_managerIZN4LIEF5MachO8DyldInfo19update_binding_infoERNS1_15vector_iostreamERNS2_7details17dyld_info_commandEE3$_0E15_M_init_functorIRKS9_EEvRSt9_Any_dataOT_"(ptr noundef nonnull align 8 dereferenceable(16) %17, ptr noundef nonnull align 1 dereferenceable(1) %19) #21
  br label %22

20:                                               ; preds = %3
  %21 = load ptr, ptr %4, align 8, !tbaa !1777
  call void @"_ZNSt14_Function_base13_Base_managerIZN4LIEF5MachO8DyldInfo19update_binding_infoERNS1_15vector_iostreamERNS2_7details17dyld_info_commandEE3$_0E10_M_destroyERSt9_Any_dataSt17integral_constantIbLb1EE"(ptr noundef nonnull align 8 dereferenceable(16) %21)
  br label %22

22:                                               ; preds = %3, %20, %16, %11, %8
  ret i1 false
}

; Function Attrs: mustprogress nounwind uwtable
define internal noundef nonnull align 8 dereferenceable(8) ptr @"_ZNSt9_Any_data9_M_accessIPZN4LIEF5MachO8DyldInfo19update_binding_infoERNS1_15vector_iostreamERNS2_7details17dyld_info_commandEE3$_0EERT_v"(ptr noundef nonnull align 8 dereferenceable(16) %0) #0 align 2 {
  %2 = alloca ptr, align 8
  store ptr %0, ptr %2, align 8, !tbaa !1777
  %3 = load ptr, ptr %2, align 8
  %4 = call noundef ptr @_ZNSt9_Any_data9_M_accessEv(ptr noundef nonnull align 8 dereferenceable(16) %3) #21
  ret ptr %4
}

; Function Attrs: mustprogress nounwind uwtable
define internal noundef ptr @"_ZNSt14_Function_base13_Base_managerIZN4LIEF5MachO8DyldInfo19update_binding_infoERNS1_15vector_iostreamERNS2_7details17dyld_info_commandEE3$_0E14_M_get_pointerERKSt9_Any_data"(ptr noundef nonnull align 8 dereferenceable(16) %0) #0 align 2 {
  %2 = alloca ptr, align 8
  %3 = alloca ptr, align 8
  store ptr %0, ptr %2, align 8, !tbaa !1777
  call void @llvm.lifetime.start.p0(i64 8, ptr %3) #21
  %4 = load ptr, ptr %2, align 8, !tbaa !1777
  %5 = call noundef nonnull align 1 dereferenceable(1) ptr @"_ZNKSt9_Any_data9_M_accessIZN4LIEF5MachO8DyldInfo19update_binding_infoERNS1_15vector_iostreamERNS2_7details17dyld_info_commandEE3$_0EERKT_v"(ptr noundef nonnull align 8 dereferenceable(16) %4) #21
  store ptr %5, ptr %3, align 8, !tbaa !139
  %6 = load ptr, ptr %3, align 8, !tbaa !139
  call void @llvm.lifetime.end.p0(i64 8, ptr %3) #21
  ret ptr %6
}

; Function Attrs: mustprogress nounwind uwtable
define linkonce_odr hidden noundef nonnull align 8 dereferenceable(8) ptr @_ZNSt9_Any_data9_M_accessIPKSt9type_infoEERT_v(ptr noundef nonnull align 8 dereferenceable(16) %0) #0 comdat align 2 {
  %2 = alloca ptr, align 8
  store ptr %0, ptr %2, align 8, !tbaa !1777
  %3 = load ptr, ptr %2, align 8
  %4 = call noundef ptr @_ZNSt9_Any_data9_M_accessEv(ptr noundef nonnull align 8 dereferenceable(16) %3) #21
  ret ptr %4
}

; Function Attrs: mustprogress nounwind uwtable
define internal noundef zeroext i1 @"_ZNSt17_Function_handlerIFbPN4LIEF5MachO15DyldBindingInfoES3_EZNS1_8DyldInfo19update_binding_infoERNS0_15vector_iostreamERNS1_7details17dyld_info_commandEE3$_0E10_M_managerERSt9_Any_dataRKSD_St18_Manager_operation"(ptr noundef nonnull align 8 dereferenceable(16) %0, ptr noundef nonnull align 8 dereferenceable(16) %1, i32 noundef %2) #0 align 2 {
  %4 = alloca ptr, align 8
  %5 = alloca ptr, align 8
  %6 = alloca i32, align 4
  store ptr %0, ptr %4, align 8, !tbaa !1777
  store ptr %1, ptr %5, align 8, !tbaa !1777
  store i32 %2, ptr %6, align 4, !tbaa !1779
  %7 = load i32, ptr %6, align 4, !tbaa !1779
  switch i32 %7, label %16 [
    i32 0, label %8
    i32 1, label %11
  ]

8:                                                ; preds = %3
  %9 = load ptr, ptr %4, align 8, !tbaa !1777
  %10 = call noundef nonnull align 8 dereferenceable(8) ptr @_ZNSt9_Any_data9_M_accessIPKSt9type_infoEERT_v(ptr noundef nonnull align 8 dereferenceable(16) %9) #21
  store ptr @"_ZTIZN4LIEF5MachO8DyldInfo19update_binding_infoERNS_15vector_iostreamERNS0_7details17dyld_info_commandEE3$_0", ptr %10, align 8, !tbaa !1781
  br label %21

11:                                               ; preds = %3
  %12 = load ptr, ptr %5, align 8, !tbaa !1777
  %13 = call noundef ptr @"_ZNSt14_Function_base13_Base_managerIZN4LIEF5MachO8DyldInfo19update_binding_infoERNS1_15vector_iostreamERNS2_7details17dyld_info_commandEE3$_0E14_M_get_pointerERKSt9_Any_data"(ptr noundef nonnull align 8 dereferenceable(16) %12) #21
  %14 = load ptr, ptr %4, align 8, !tbaa !1777
  %15 = call noundef nonnull align 8 dereferenceable(8) ptr @"_ZNSt9_Any_data9_M_accessIPZN4LIEF5MachO8DyldInfo19update_binding_infoERNS1_15vector_iostreamERNS2_7details17dyld_info_commandEE3$_0EERT_v"(ptr noundef nonnull align 8 dereferenceable(16) %14) #21
  store ptr %13, ptr %15, align 8, !tbaa !139
  br label %21

16:                                               ; preds = %3
  %17 = load ptr, ptr %4, align 8, !tbaa !1777
  %18 = load ptr, ptr %5, align 8, !tbaa !1777
  %19 = load i32, ptr %6, align 4, !tbaa !1779
  %20 = call noundef zeroext i1 @"_ZNSt14_Function_base13_Base_managerIZN4LIEF5MachO8DyldInfo19update_binding_infoERNS1_15vector_iostreamERNS2_7details17dyld_info_commandEE3$_0E10_M_managerERSt9_Any_dataRKSB_St18_Manager_operation"(ptr noundef nonnull align 8 dereferenceable(16) %17, ptr noundef nonnull align 8 dereferenceable(16) %18, i32 noundef %19)
  br label %21

21:                                               ; preds = %16, %11, %8
  ret i1 false
}