; Function Attrs: mustprogress nofree norecurse nosync nounwind willreturn memory(argmem: write) uwtable
define internal noundef zeroext i1 @"_ZNSt17_Function_handlerIFbPN4LIEF5MachO15DyldBindingInfoES3_EZNS1_8DyldInfo19update_binding_infoERNS0_15vector_iostreamERNS1_7details17dyld_info_commandEE3$_0E10_M_managerERSt9_Any_dataRKSD_St18_Manager_operation"(ptr noundef nonnull writeonly align 8 captures(none) dereferenceable(16) %0, ptr noundef nonnull align 8 dereferenceable(16) %1, i32 noundef %2) #20 align 2 {
  switch i32 %2, label %"_ZNSt14_Function_base13_Base_managerIZN4LIEF5MachO8DyldInfo19update_binding_infoERNS1_15vector_iostreamERNS2_7details17dyld_info_commandEE3$_0E10_M_managerERSt9_Any_dataRKSB_St18_Manager_operation.exit" [
    i32 0, label %"_ZNSt14_Function_base13_Base_managerIZN4LIEF5MachO8DyldInfo19update_binding_infoERNS1_15vector_iostreamERNS2_7details17dyld_info_commandEE3$_0E10_M_managerERSt9_Any_dataRKSB_St18_Manager_operation.exit.sink.split"
    i32 1, label %4
  ]

4:                                                ; preds = %3
  br label %"_ZNSt14_Function_base13_Base_managerIZN4LIEF5MachO8DyldInfo19update_binding_infoERNS1_15vector_iostreamERNS2_7details17dyld_info_commandEE3$_0E10_M_managerERSt9_Any_dataRKSB_St18_Manager_operation.exit.sink.split"

"_ZNSt14_Function_base13_Base_managerIZN4LIEF5MachO8DyldInfo19update_binding_infoERNS1_15vector_iostreamERNS2_7details17dyld_info_commandEE3$_0E10_M_managerERSt9_Any_dataRKSB_St18_Manager_operation.exit.sink.split": ; preds = %3, %4
  %.sink = phi ptr [ %1, %4 ], [ @"_ZTIZN4LIEF5MachO8DyldInfo19update_binding_infoERNS_15vector_iostreamERNS0_7details17dyld_info_commandEE3$_0", %3 ]
  store ptr %.sink, ptr %0, align 8, !tbaa !523
  br label %"_ZNSt14_Function_base13_Base_managerIZN4LIEF5MachO8DyldInfo19update_binding_infoERNS1_15vector_iostreamERNS2_7details17dyld_info_commandEE3$_0E10_M_managerERSt9_Any_dataRKSB_St18_Manager_operation.exit"

"_ZNSt14_Function_base13_Base_managerIZN4LIEF5MachO8DyldInfo19update_binding_infoERNS1_15vector_iostreamERNS2_7details17dyld_info_commandEE3$_0E10_M_managerERSt9_Any_dataRKSB_St18_Manager_operation.exit": ; preds = %"_ZNSt14_Function_base13_Base_managerIZN4LIEF5MachO8DyldInfo19update_binding_infoERNS1_15vector_iostreamERNS2_7details17dyld_info_commandEE3$_0E10_M_managerERSt9_Any_dataRKSB_St18_Manager_operation.exit.sink.split", %3
  ret i1 false
}